; Function Attrs: mustprogress uwtable
define dso_local noundef double @_ZN3igl8triangle4scaf14compute_energyERNS0_8SCAFDataERKN5Eigen6MatrixIdLin1ELin1ELi0ELin1ELin1EEEb(ptr noundef nonnull align 8 dereferenceable(1032) %0, ptr noundef nonnull align 8 dereferenceable(24) %1, i1 noundef zeroext %2) local_unnamed_addr #0 {
  tail call void @_ZN3igl8triangle4scaf17compute_jacobiansERNS0_8SCAFDataERKN5Eigen6MatrixIdLin1ELin1ELi0ELin1ELin1EEEb(ptr noundef nonnull align 8 dereferenceable(1032) %0, ptr noundef nonnull align 8 dereferenceable(24) %1, i1 noundef zeroext %2)
  %4 = getelementptr inbounds nuw i8, ptr %0, i64 912
  %5 = getelementptr inbounds nuw i8, ptr %0, i64 208
  %6 = getelementptr inbounds nuw i8, ptr %0, i64 12
  %7 = load i32, ptr %6, align 4, !tbaa !351
  %8 = icmp eq i32 %7, 2
  %spec.store.select.i = select i1 %8, double -4.000000e+00, double 0.000000e+00
  %9 = tail call noundef double @_ZN3igl29mapping_energy_with_jacobiansERKN5Eigen6MatrixIdLin1ELin1ELi0ELin1ELin1EEERKNS1_IdLin1ELi1ELi0ELin1ELi1EEENS_17MappingEnergyTypeEd(ptr noundef nonnull align 8 dereferenceable(24) %4, ptr noundef nonnull align 8 dereferenceable(16) %5, i32 noundef %7, double noundef 0.000000e+00)
  %10 = fadd double %9, %spec.store.select.i
  br i1 %2, label %11, label %20

11:                                               ; preds = %3
  %12 = getelementptr inbounds nuw i8, ptr %0, i64 960
  %13 = getelementptr inbounds nuw i8, ptr %0, i64 224
  %14 = getelementptr inbounds nuw i8, ptr %0, i64 8
  %15 = load i32, ptr %14, align 8, !tbaa !352
  %16 = icmp eq i32 %15, 2
  %spec.store.select.i15 = select i1 %16, double -4.000000e+00, double 0.000000e+00
  %17 = tail call noundef double @_ZN3igl29mapping_energy_with_jacobiansERKN5Eigen6MatrixIdLin1ELin1ELi0ELin1ELin1EEERKNS1_IdLin1ELi1ELi0ELin1ELi1EEENS_17MappingEnergyTypeEd(ptr noundef nonnull align 8 dereferenceable(24) %12, ptr noundef nonnull align 8 dereferenceable(16) %13, i32 noundef %15, double noundef 0.000000e+00)
  %18 = fadd double %17, %spec.store.select.i15
  %19 = fadd double %10, %18
  br label %20

20:                                               ; preds = %11, %3
  %.0 = phi double [ %19, %11 ], [ %10, %3 ]
  %21 = tail call noundef double @_ZN3igl8triangle4scaf30compute_soft_constraint_energyERKNS0_8SCAFDataE(ptr noundef nonnull align 8 dereferenceable(1032) %0)
  %22 = fadd double %.0, %21
  ret double %22
}